target datalayout = "e-m:e-p270:32:32-p271:32:32-p272:64:64-i64:64-i128:128-f80:128-n8:16:32:64-S128"
target triple = "x86_64-pc-linux-gnu"

%struct.DecoderInstance = type { i32, i32, i32, i32 }

@title_peak_ = internal global double 0.000000e+00, align 8
@.str.5 = private unnamed_addr constant [24 x i8] c"memory allocation error\00", align 1
@.str.6 = private unnamed_addr constant [21 x i8] c"initializing decoder\00", align 1
@.str.7 = private unnamed_addr constant [14 x i8] c"decoding file\00", align 1

; Function Attrs: nounwind sspstrong uwtable
define dso_local void @grabbag__replaygain_get_title(ptr noundef %0, ptr noundef %1) #0 {
  %3 = alloca ptr, align 8
  %4 = alloca ptr, align 8
  store ptr %0, ptr %3, align 8, !tbaa !26
  store ptr %1, ptr %4, align 8, !tbaa !26
  %5 = call float @GetTitleGain()
  %6 = load ptr, ptr %3, align 8, !tbaa !26
  store float %5, ptr %6, align 4, !tbaa !15
  %7 = load double, ptr @title_peak_, align 8, !tbaa !8
  %8 = fptrunc double %7 to float
  %9 = load ptr, ptr %4, align 8, !tbaa !26
  store float %8, ptr %9, align 4, !tbaa !15
  store double 0.000000e+00, ptr @title_peak_, align 8, !tbaa !8
  ret void
}

; Function Attrs: nounwind sspstrong uwtable
define dso_local ptr @grabbag__replaygain_analyze_file(ptr noundef %0, ptr noundef %1, ptr noundef %2) #0 {
  %4 = alloca ptr, align 8
  %5 = alloca ptr, align 8
  %6 = alloca ptr, align 8
  %7 = alloca ptr, align 8
  %8 = alloca %struct.DecoderInstance, align 4
  %9 = alloca ptr, align 8
  %10 = alloca i32, align 4
  store ptr %0, ptr %5, align 8, !tbaa !28
  store ptr %1, ptr %6, align 8, !tbaa !26
  store ptr %2, ptr %7, align 8, !tbaa !26
  call void @llvm.lifetime.start.p0(i64 16, ptr %8) #8
  call void @llvm.lifetime.start.p0(i64 8, ptr %9) #8
  %11 = call ptr @FLAC__stream_decoder_new()
  store ptr %11, ptr %9, align 8, !tbaa !30
  %12 = load ptr, ptr %9, align 8, !tbaa !30
  %13 = icmp eq ptr null, %12
  br i1 %13, label %14, label %15

14:                                               ; preds = %3
  store ptr @.str.5, ptr %4, align 8
  store i32 1, ptr %10, align 4
  br label %43

15:                                               ; preds = %3
  %16 = getelementptr inbounds nuw %struct.DecoderInstance, ptr %8, i32 0, i32 3
  store i32 0, ptr %16, align 4, !tbaa !31
  %17 = load ptr, ptr %9, align 8, !tbaa !30
  %18 = call i32 @FLAC__stream_decoder_set_md5_checking(ptr noundef %17, i32 noundef 0)
  %19 = load ptr, ptr %9, align 8, !tbaa !30
  %20 = call i32 @FLAC__stream_decoder_set_metadata_ignore_all(ptr noundef %19)
  %21 = load ptr, ptr %9, align 8, !tbaa !30
  %22 = call i32 @FLAC__stream_decoder_set_metadata_respond(ptr noundef %21, i32 noundef 0)
  %23 = load ptr, ptr %9, align 8, !tbaa !30
  %24 = load ptr, ptr %5, align 8, !tbaa !28
  %25 = call i32 @FLAC__stream_decoder_init_file(ptr noundef %23, ptr noundef %24, ptr noundef @write_callback_, ptr noundef @metadata_callback_, ptr noundef @error_callback_, ptr noundef %8)
  %26 = icmp ne i32 %25, 0
  br i1 %26, label %27, label %29

27:                                               ; preds = %15
  %28 = load ptr, ptr %9, align 8, !tbaa !30
  call void @FLAC__stream_decoder_delete(ptr noundef %28)
  store ptr @.str.6, ptr %4, align 8
  store i32 1, ptr %10, align 4
  br label %43

29:                                               ; preds = %15
  %30 = load ptr, ptr %9, align 8, !tbaa !30
  %31 = call i32 @FLAC__stream_decoder_process_until_end_of_stream(ptr noundef %30)
  %32 = icmp ne i32 %31, 0
  br i1 %32, label %33, label %37

33:                                               ; preds = %29
  %34 = getelementptr inbounds nuw %struct.DecoderInstance, ptr %8, i32 0, i32 3
  %35 = load i32, ptr %34, align 4, !tbaa !31
  %36 = icmp ne i32 %35, 0
  br i1 %36, label %37, label %39

37:                                               ; preds = %33, %29
  %38 = load ptr, ptr %9, align 8, !tbaa !30
  call void @FLAC__stream_decoder_delete(ptr noundef %38)
  store ptr @.str.7, ptr %4, align 8
  store i32 1, ptr %10, align 4
  br label %43

39:                                               ; preds = %33
  %40 = load ptr, ptr %9, align 8, !tbaa !30
  call void @FLAC__stream_decoder_delete(ptr noundef %40)
  %41 = load ptr, ptr %6, align 8, !tbaa !26
  %42 = load ptr, ptr %7, align 8, !tbaa !26
  call void @grabbag__replaygain_get_title(ptr noundef %41, ptr noundef %42)
  store ptr null, ptr %4, align 8
  store i32 1, ptr %10, align 4
  br label %43

43:                                               ; preds = %39, %37, %27, %14
  call void @llvm.lifetime.end.p0(i64 8, ptr %9) #8
  call void @llvm.lifetime.end.p0(i64 16, ptr %8) #8
  %44 = load ptr, ptr %4, align 8
  ret ptr %44
}