; Function Attrs: nounwind sspstrong uwtable
define dso_local noundef ptr @grabbag__replaygain_analyze_file(ptr noundef %0, ptr noundef writeonly captures(none) %1, ptr noundef writeonly captures(none) %2) local_unnamed_addr #0 {
  %4 = alloca %struct.DecoderInstance, align 4
  call void @llvm.lifetime.start.p0(i64 16, ptr nonnull %4) #14
  %5 = tail call ptr @FLAC__stream_decoder_new() #14
  %6 = icmp eq ptr %5, null
  br i1 %6, label %23, label %7

7:                                                ; preds = %3
  %8 = getelementptr inbounds nuw i8, ptr %4, i64 12
  store i32 0, ptr %8, align 4, !tbaa !24
  %9 = tail call i32 @FLAC__stream_decoder_set_md5_checking(ptr noundef nonnull %5, i32 noundef 0) #14
  %10 = tail call i32 @FLAC__stream_decoder_set_metadata_ignore_all(ptr noundef nonnull %5) #14
  %11 = tail call i32 @FLAC__stream_decoder_set_metadata_respond(ptr noundef nonnull %5, i32 noundef 0) #14
  %12 = call i32 @FLAC__stream_decoder_init_file(ptr noundef nonnull %5, ptr noundef %0, ptr noundef nonnull @write_callback_, ptr noundef nonnull @metadata_callback_, ptr noundef nonnull @error_callback_, ptr noundef nonnull %4) #14
  %.not = icmp eq i32 %12, 0
  br i1 %.not, label %14, label %13

13:                                               ; preds = %7
  call void @FLAC__stream_decoder_delete(ptr noundef nonnull %5) #14
  br label %23

14:                                               ; preds = %7
  %15 = call i32 @FLAC__stream_decoder_process_until_end_of_stream(ptr noundef nonnull %5) #14
  %16 = icmp eq i32 %15, 0
  %17 = load i32, ptr %8, align 4
  %18 = icmp ne i32 %17, 0
  %or.cond = select i1 %16, i1 true, i1 %18
  call void @FLAC__stream_decoder_delete(ptr noundef nonnull %5) #14
  br i1 %or.cond, label %23, label %19

19:                                               ; preds = %14
  %20 = call float @GetTitleGain() #14
  store float %20, ptr %1, align 4, !tbaa !13
  %21 = load double, ptr @title_peak_, align 8, !tbaa !4
  %22 = fptrunc double %21 to float
  store float %22, ptr %2, align 4, !tbaa !13
  store double 0.000000e+00, ptr @title_peak_, align 8, !tbaa !4
  br label %23

23:                                               ; preds = %14, %3, %19, %13
  %.0 = phi ptr [ @.str.6, %13 ], [ null, %19 ], [ @.str.5, %3 ], [ @.str.7, %14 ]
  call void @llvm.lifetime.end.p0(i64 16, ptr nonnull %4) #14
  ret ptr %.0
}